target datalayout = "e-m:e-p270:32:32-p271:32:32-p272:64:64-i64:64-i128:128-f80:128-n8:16:32:64-S128"
target triple = "x86_64-pc-linux-gnu"

%struct._phpdbg_help_text_t = type { ptr, ptr }

@.str.11 = private unnamed_addr constant [10 x i8] c"overview!\00", align 1
@.str.12 = private unnamed_addr constant [1 x i8] zeroinitializer, align 1
@.str.13 = private unnamed_addr constant [40 x i8] c"\0Arequested help page could not be found\00", align 1

; Function Attrs: nounwind uwtable
define internal ptr @get_help(ptr noundef %0) #0 {
  %2 = alloca ptr, align 8
  %3 = alloca ptr, align 8
  %4 = alloca ptr, align 8
  store ptr %0, ptr %3, align 8
  store ptr @phpdbg_help_text, ptr %4, align 8
  br label %5

5:                                                ; preds = %22, %1
  %6 = load ptr, ptr %4, align 8
  %7 = getelementptr inbounds %struct._phpdbg_help_text_t, ptr %6, i32 0, i32 0
  %8 = load ptr, ptr %7, align 8
  %9 = icmp ne ptr %8, null
  br i1 %9, label %10, label %25

10:                                               ; preds = %5
  %11 = load ptr, ptr %4, align 8
  %12 = getelementptr inbounds %struct._phpdbg_help_text_t, ptr %11, i32 0, i32 0
  %13 = load ptr, ptr %12, align 8
  %14 = load ptr, ptr %3, align 8
  %15 = call i32 @strcmp(ptr noundef %13, ptr noundef %14) #6
  %16 = icmp ne i32 %15, 0
  br i1 %16, label %21, label %17

17:                                               ; preds = %10
  %18 = load ptr, ptr %4, align 8
  %19 = getelementptr inbounds %struct._phpdbg_help_text_t, ptr %18, i32 0, i32 1
  %20 = load ptr, ptr %19, align 8
  store ptr %20, ptr %2, align 8
  br label %26

21:                                               ; preds = %10
  br label %22

22:                                               ; preds = %21
  %23 = load ptr, ptr %4, align 8
  %24 = getelementptr inbounds %struct._phpdbg_help_text_t, ptr %23, i32 1
  store ptr %24, ptr %4, align 8
  br label %5

25:                                               ; preds = %5
  store ptr @.str.12, ptr %2, align 8
  br label %26

26:                                               ; preds = %25, %17
  %27 = load ptr, ptr %2, align 8
  ret ptr %27
}

; Function Attrs: nounwind uwtable
define hidden void @phpdbg_do_help_cmd(ptr noundef %0) #0 {
  %2 = alloca ptr, align 8
  %3 = alloca ptr, align 8
  store ptr %0, ptr %2, align 8
  %4 = load ptr, ptr %2, align 8
  %5 = icmp ne ptr %4, null
  br i1 %5, label %8, label %6

6:                                                ; preds = %1
  %7 = call ptr @get_help(ptr noundef @.str.11)
  call void @pretty_print(ptr noundef %7)
  br label %21

8:                                                ; preds = %1
  %9 = load ptr, ptr %2, align 8
  %10 = call ptr @get_help(ptr noundef %9)
  store ptr %10, ptr %3, align 8
  %11 = load ptr, ptr %3, align 8
  %12 = icmp ne ptr %11, null
  br i1 %12, label %13, label %17

13:                                               ; preds = %8
  %14 = load ptr, ptr %3, align 8
  %15 = call i32 @memcmp(ptr noundef %14, ptr noundef @.str.12, i64 noundef 1) #6
  %16 = icmp eq i32 %15, 0
  br i1 %16, label %17, label %19

17:                                               ; preds = %13, %8
  %18 = call ptr @get_help(ptr noundef @.str.11)
  call void @pretty_print(ptr noundef %18)
  call void @pretty_print(ptr noundef @.str.13)
  br label %21

19:                                               ; preds = %13
  %20 = load ptr, ptr %3, align 8
  call void @pretty_print(ptr noundef %20)
  br label %21

21:                                               ; preds = %19, %17, %6
  ret void
}