; Function Attrs: nounwind uwtable
define hidden void @phpdbg_do_help_cmd(ptr noundef readonly %0) local_unnamed_addr #0 {
  %.not = icmp eq ptr %0, null
  br i1 %.not, label %.preheader, label %.preheader20

.preheader:                                       ; preds = %1, %7
  %2 = phi ptr [ %9, %7 ], [ @.str.11, %1 ]
  %.010.i = phi ptr [ %8, %7 ], [ @phpdbg_help_text, %1 ]
  %3 = tail call i32 @strcmp(ptr noundef nonnull dereferenceable(1) %2, ptr noundef nonnull dereferenceable(10) @.str.11) #7
  %.not8.i = icmp eq i32 %3, 0
  br i1 %.not8.i, label %4, label %7

4:                                                ; preds = %.preheader
  %5 = getelementptr inbounds i8, ptr %.010.i, i64 8
  %6 = load ptr, ptr %5, align 8
  br label %get_help.exit

7:                                                ; preds = %.preheader
  %8 = getelementptr inbounds i8, ptr %.010.i, i64 16
  %9 = load ptr, ptr %8, align 8
  %.not.i = icmp eq ptr %9, null
  br i1 %.not.i, label %get_help.exit, label %.preheader

get_help.exit:                                    ; preds = %7, %4
  %.06.i = phi ptr [ %6, %4 ], [ @.str.12, %7 ]
  tail call fastcc void @pretty_print(ptr noundef %.06.i)
  br label %28

.preheader20:                                     ; preds = %1, %12
  %10 = phi ptr [ %14, %12 ], [ @.str.11, %1 ]
  %.010.i7 = phi ptr [ %13, %12 ], [ @phpdbg_help_text, %1 ]
  %11 = tail call i32 @strcmp(ptr noundef nonnull dereferenceable(1) %10, ptr noundef nonnull dereferenceable(1) %0) #7
  %.not8.i8 = icmp eq i32 %11, 0
  br i1 %.not8.i8, label %get_help.exit11, label %12

12:                                               ; preds = %.preheader20
  %13 = getelementptr inbounds i8, ptr %.010.i7, i64 16
  %14 = load ptr, ptr %13, align 8
  %.not.i9 = icmp eq ptr %14, null
  br i1 %.not.i9, label %get_help.exit11.thread, label %.preheader20

get_help.exit11:                                  ; preds = %.preheader20
  %15 = getelementptr inbounds i8, ptr %.010.i7, i64 8
  %16 = load ptr, ptr %15, align 8
  %.not6 = icmp eq ptr %16, null
  br i1 %.not6, label %.preheader34, label %get_help.exit11.thread

get_help.exit11.thread:                           ; preds = %12, %get_help.exit11
  %.06.i1019 = phi ptr [ %16, %get_help.exit11 ], [ @.str.12, %12 ]
  %lhsc = load i8, ptr %.06.i1019, align 1
  %17 = icmp eq i8 %lhsc, 0
  br i1 %17, label %.preheader34, label %27

.preheader34:                                     ; preds = %get_help.exit11.thread, %get_help.exit11
  br label %18

18:                                               ; preds = %.preheader34, %24
  %19 = phi ptr [ %26, %24 ], [ @.str.11, %.preheader34 ]
  %.010.i12 = phi ptr [ %25, %24 ], [ @phpdbg_help_text, %.preheader34 ]
  %20 = tail call i32 @strcmp(ptr noundef nonnull dereferenceable(1) %19, ptr noundef nonnull dereferenceable(10) @.str.11) #7
  %.not8.i13 = icmp eq i32 %20, 0
  br i1 %.not8.i13, label %21, label %24

21:                                               ; preds = %18
  %22 = getelementptr inbounds i8, ptr %.010.i12, i64 8
  %23 = load ptr, ptr %22, align 8
  br label %get_help.exit16

24:                                               ; preds = %18
  %25 = getelementptr inbounds i8, ptr %.010.i12, i64 16
  %26 = load ptr, ptr %25, align 8
  %.not.i14 = icmp eq ptr %26, null
  br i1 %.not.i14, label %get_help.exit16, label %18

get_help.exit16:                                  ; preds = %24, %21
  %.06.i15 = phi ptr [ %23, %21 ], [ @.str.12, %24 ]
  tail call fastcc void @pretty_print(ptr noundef %.06.i15)
  tail call fastcc void @pretty_print(ptr noundef nonnull @.str.13)
  br label %28

27:                                               ; preds = %get_help.exit11.thread
  tail call fastcc void @pretty_print(ptr noundef nonnull %.06.i1019)
  br label %28

28:                                               ; preds = %27, %get_help.exit16, %get_help.exit
  ret void
}